target datalayout = "e-m:e-p270:32:32-p271:32:32-p272:64:64-i64:64-i128:128-f80:128-n8:16:32:64-S128"
target triple = "x86_64-pc-linux-gnu"

%"class.open_spiel::dots_and_boxes::Move" = type { i32, i32, i32, i32, i32 }

; Function Attrs: mustprogress nounwind uwtable
define noundef i32 @_ZN10open_spiel14dots_and_boxes4Move17GetCellAboveRightEv(ptr noundef nonnull align 4 dereferenceable(20) %0) #5 align 2 {
  %2 = alloca i32, align 4
  %3 = alloca ptr, align 8
  store ptr %0, ptr %3, align 8
  %4 = load ptr, ptr %3, align 8
  %5 = getelementptr inbounds nuw %"class.open_spiel::dots_and_boxes::Move", ptr %4, i32 0, i32 0
  %6 = load i32, ptr %5, align 4
  %7 = icmp eq i32 %6, 0
  br i1 %7, label %14, label %8

8:                                                ; preds = %1
  %9 = getelementptr inbounds nuw %"class.open_spiel::dots_and_boxes::Move", ptr %4, i32 0, i32 1
  %10 = load i32, ptr %9, align 4
  %11 = getelementptr inbounds nuw %"class.open_spiel::dots_and_boxes::Move", ptr %4, i32 0, i32 4
  %12 = load i32, ptr %11, align 4
  %13 = icmp eq i32 %10, %12
  br i1 %13, label %14, label %15

14:                                               ; preds = %8, %1
  store i32 -1, ptr %2, align 4
  br label %27

15:                                               ; preds = %8
  %16 = getelementptr inbounds nuw %"class.open_spiel::dots_and_boxes::Move", ptr %4, i32 0, i32 0
  %17 = load i32, ptr %16, align 4
  %18 = sub nsw i32 %17, 1
  %19 = getelementptr inbounds nuw %"class.open_spiel::dots_and_boxes::Move", ptr %4, i32 0, i32 4
  %20 = load i32, ptr %19, align 4
  %21 = add nsw i32 %20, 1
  %22 = mul nsw i32 %18, %21
  %23 = getelementptr inbounds nuw %"class.open_spiel::dots_and_boxes::Move", ptr %4, i32 0, i32 1
  %24 = load i32, ptr %23, align 4
  %25 = add nsw i32 %24, 1
  %26 = add nsw i32 %22, %25
  store i32 %26, ptr %2, align 4
  br label %27

27:                                               ; preds = %15, %14
  %28 = load i32, ptr %2, align 4
  ret i32 %28
}